; Function Attrs: mustprogress nofree norecurse nosync nounwind willreturn memory(read, argmem: readwrite, inaccessiblemem: none) uwtable
define dso_local noundef zeroext i1 @_ZN4base9ListValue3GetEmPPNS_5ValueE(ptr nocapture noundef nonnull readonly align 8 dereferenceable(40) %this, i64 noundef %index, ptr noundef writeonly %out_value) local_unnamed_addr #14 align 2 {
entry:
  %list_.i = getelementptr inbounds i8, ptr %this, i64 16
  %_M_finish.i.i = getelementptr inbounds i8, ptr %this, i64 24
  %0 = load ptr, ptr %_M_finish.i.i, align 8
  %1 = load ptr, ptr %list_.i, align 8
  %sub.ptr.lhs.cast.i.i = ptrtoint ptr %0 to i64
  %sub.ptr.rhs.cast.i.i = ptrtoint ptr %1 to i64
  %sub.ptr.sub.i.i = sub i64 %sub.ptr.lhs.cast.i.i, %sub.ptr.rhs.cast.i.i
  %sub.ptr.div.i.i = ashr exact i64 %sub.ptr.sub.i.i, 3
  %cmp.not.i = icmp ugt i64 %sub.ptr.div.i.i, %index
  %tobool.not.i = icmp ne ptr %out_value, null
  %or.cond.not.i = and i1 %tobool.not.i, %cmp.not.i
  br i1 %or.cond.not.i, label %if.then2.i, label %_ZNK4base9ListValue3GetEmPPKNS_5ValueE.exit

if.then2.i:                                       ; preds = %entry
  %add.ptr.i.i = getelementptr inbounds %"class.std::unique_ptr", ptr %1, i64 %index
  %2 = load ptr, ptr %add.ptr.i.i, align 8
  store ptr %2, ptr %out_value, align 8
  br label %_ZNK4base9ListValue3GetEmPPKNS_5ValueE.exit

_ZNK4base9ListValue3GetEmPPKNS_5ValueE.exit:      ; preds = %entry, %if.then2.i
  ret i1 %cmp.not.i
}